target datalayout = "e-m:e-p270:32:32-p271:32:32-p272:64:64-i64:64-i128:128-f80:128-n8:16:32:64-S128"
target triple = "x86_64-pc-linux-gnu"

%struct.expert_field = type { i32, i32 }

@hf_pfcp_lns_address_ipv4 = internal global i32 0, align 4
@hf_pfcp_lns_address_ipv6 = internal global i32 0, align 4
@ei_pfcp_ie_data_not_decoded = internal global %struct.expert_field zeroinitializer, align 4

; Function Attrs: null_pointer_is_valid sspstrong uwtable
define internal void @dissect_pfcp_lns_address(ptr noundef %0, ptr noundef %1, ptr noundef %2, ptr noundef %3, i16 noundef zeroext %4, i8 noundef zeroext %5, ptr noundef %6) #0 {
  %8 = alloca ptr, align 8
  %9 = alloca ptr, align 8
  %10 = alloca ptr, align 8
  %11 = alloca ptr, align 8
  %12 = alloca i16, align 2
  %13 = alloca i8, align 1
  %14 = alloca ptr, align 8
  %15 = alloca i32, align 4
  store ptr %0, ptr %8, align 8
  store ptr %1, ptr %9, align 8
  store ptr %2, ptr %10, align 8
  store ptr %3, ptr %11, align 8
  store i16 %4, ptr %12, align 2
  store i8 %5, ptr %13, align 1
  store ptr %6, ptr %14, align 8
  call void @llvm.lifetime.start.p0(i64 4, ptr %15) #13
  store i32 0, ptr %15, align 4
  %16 = load i16, ptr %12, align 2
  %17 = zext i16 %16 to i32
  %18 = icmp eq i32 %17, 4
  br i1 %18, label %19, label %27

19:                                               ; preds = %7
  %20 = load ptr, ptr %10, align 8
  %21 = load i32, ptr @hf_pfcp_lns_address_ipv4, align 4
  %22 = load ptr, ptr %8, align 8
  %23 = load i32, ptr %15, align 4
  %24 = call ptr @proto_tree_add_item(ptr noundef %20, i32 noundef %21, ptr noundef %22, i32 noundef %23, i32 noundef 4, i32 noundef 0)
  %25 = load i32, ptr %15, align 4
  %26 = add i32 %25, 4
  store i32 %26, ptr %15, align 4
  br label %40

27:                                               ; preds = %7
  %28 = load i16, ptr %12, align 2
  %29 = zext i16 %28 to i32
  %30 = icmp eq i32 %29, 16
  br i1 %30, label %31, label %39

31:                                               ; preds = %27
  %32 = load ptr, ptr %10, align 8
  %33 = load i32, ptr @hf_pfcp_lns_address_ipv6, align 4
  %34 = load ptr, ptr %8, align 8
  %35 = load i32, ptr %15, align 4
  %36 = call ptr @proto_tree_add_item(ptr noundef %32, i32 noundef %33, ptr noundef %34, i32 noundef %35, i32 noundef 16, i32 noundef 0)
  %37 = load i32, ptr %15, align 4
  %38 = add i32 %37, 16
  store i32 %38, ptr %15, align 4
  br label %39

39:                                               ; preds = %31, %27
  br label %40

40:                                               ; preds = %39, %19
  %41 = load i32, ptr %15, align 4
  %42 = load i16, ptr %12, align 2
  %43 = zext i16 %42 to i32
  %44 = icmp slt i32 %41, %43
  br i1 %44, label %45, label %51

45:                                               ; preds = %40
  %46 = load ptr, ptr %10, align 8
  %47 = load ptr, ptr %9, align 8
  %48 = load ptr, ptr %8, align 8
  %49 = load i32, ptr %15, align 4
  %50 = call ptr @proto_tree_add_expert(ptr noundef %46, ptr noundef %47, ptr noundef @ei_pfcp_ie_data_not_decoded, ptr noundef %48, i32 noundef %49, i32 noundef -1)
  br label %51

51:                                               ; preds = %45, %40
  call void @llvm.lifetime.end.p0(i64 4, ptr %15) #13
  ret void
}