; Function Attrs: null_pointer_is_valid sspstrong uwtable
define internal void @dissect_pfcp_lns_address(ptr noundef %0, ptr noundef %1, ptr noundef %2, ptr readnone captures(none) %3, i16 noundef zeroext %4, i8 zeroext %5, ptr readnone captures(none) %6) #0 {
  %8 = zext i16 %4 to i32
  switch i16 %4, label %12 [
    i16 4, label %.sink.split
    i16 16, label %9
  ]

9:                                                ; preds = %7
  br label %.sink.split

.sink.split:                                      ; preds = %7, %9
  %hf_pfcp_lns_address_ipv6.sink = phi ptr [ @hf_pfcp_lns_address_ipv6, %9 ], [ @hf_pfcp_lns_address_ipv4, %7 ]
  %.sink16 = phi i32 [ 16, %9 ], [ 4, %7 ]
  %10 = load i32, ptr %hf_pfcp_lns_address_ipv6.sink, align 4
  %11 = tail call ptr @proto_tree_add_item(ptr noundef %2, i32 noundef %10, ptr noundef %0, i32 noundef 0, i32 noundef %.sink16, i32 noundef 0)
  br label %12

12:                                               ; preds = %.sink.split, %7
  %.0 = phi i32 [ 0, %7 ], [ %.sink16, %.sink.split ]
  %13 = icmp samesign ult i32 %.0, %8
  br i1 %13, label %14, label %16

14:                                               ; preds = %12
  %15 = tail call ptr @proto_tree_add_expert(ptr noundef %2, ptr noundef %1, ptr noundef nonnull @ei_pfcp_ie_data_not_decoded, ptr noundef %0, i32 noundef %.0, i32 noundef -1)
  br label %16

16:                                               ; preds = %14, %12
  ret void
}